target datalayout = "e-m:e-p270:32:32-p271:32:32-p272:64:64-i64:64-i128:128-f80:128-n8:16:32:64-S128"
target triple = "x86_64-unknown-linux-gnu"

%struct.UHCIState = type { %struct.PCIDevice, %struct.MemoryRegion, %struct.USBBus, i16, i16, i16, i16, i32, i8, i8, i64, ptr, ptr, i32, i32, i8, [2 x %struct.UHCIPort], ptr, i32, %union.anon.8, i8, ptr, i32, i32 }
%struct.PCIDevice = type { %struct.DeviceState, i8, i8, ptr, ptr, ptr, ptr, ptr, i32, %struct.PCIReqIDCache, [64 x i8], [7 x %struct.PCIIORegion], %struct.AddressSpace, %struct.MemoryRegion, %struct.MemoryRegion, ptr, ptr, [3 x ptr], i8, i8, i32, i8, i32, ptr, ptr, ptr, ptr, ptr, ptr, %struct.MemoryRegion, %struct.MemoryRegion, %struct.MemoryRegion, ptr, i8, i32, i8, %struct.PCIExpressDevice, ptr, ptr, i32, i8, %struct.MemoryRegion, i32, ptr, ptr, ptr, ptr, ptr, i32 }
%struct.DeviceState = type { %struct.Object, ptr, ptr, i8, i8, i64, ptr, i32, i8, ptr, %struct.NamedGPIOListHead, %struct.NamedClockListHead, %struct.BusStateHead, i32, i32, i32, %struct.ResettableState, ptr, %struct.MemReentrancyGuard }
%struct.Object = type { ptr, ptr, ptr, i32, ptr }
%struct.NamedGPIOListHead = type { ptr }
%struct.NamedClockListHead = type { ptr }
%struct.BusStateHead = type { ptr }
%struct.ResettableState = type { i32, i8, i8 }
%struct.MemReentrancyGuard = type { i8 }
%struct.PCIReqIDCache = type { ptr, i32 }
%struct.PCIIORegion = type { i64, i64, i8, ptr, ptr }
%struct.AddressSpace = type { %struct.rcu_head, ptr, ptr, ptr, i32, i32, ptr, %union.anon, %union.anon.0 }
%struct.rcu_head = type { ptr, ptr }
%union.anon = type { %struct.QTailQLink }
%struct.QTailQLink = type { ptr, ptr }
%union.anon.0 = type { %struct.QTailQLink }
%struct.PCIExpressDevice = type { i8, i8, i8, i16, %struct.PCIEAERLog, i16, i16, i16, %struct.PCIESriovPF, %struct.PCIESriovVF }
%struct.PCIEAERLog = type { i16, i16, ptr }
%struct.PCIESriovPF = type { i16, [7 x i8], ptr, ptr }
%struct.PCIESriovVF = type { ptr, i16 }
%struct.MemoryRegion = type { %struct.Object, i8, i8, i8, i8, i8, i8, i8, i8, i8, i8, ptr, ptr, ptr, ptr, ptr, ptr, i32, i128, i64, ptr, i64, i8, i8, i8, i8, i8, ptr, i64, i32, %union.anon.1, %union.anon.2, %union.anon.3, ptr, i32, ptr, ptr, i8 }
%union.anon.1 = type { %struct.QTailQLink }
%union.anon.2 = type { %struct.QTailQLink }
%union.anon.3 = type { %struct.QTailQLink }
%struct.USBBus = type { %struct.BusState, ptr, i32, i32, i32, %union.anon.4, %union.anon.5, %union.anon.6 }
%struct.BusState = type { %struct.Object, ptr, ptr, ptr, i32, i8, i8, i32, %union.BusChildHead, %struct.BusStateEntry, %struct.ResettableState }
%union.BusChildHead = type { %struct.QTailQLink }
%struct.BusStateEntry = type { ptr, ptr }
%union.anon.4 = type { %struct.QTailQLink }
%union.anon.5 = type { %struct.QTailQLink }
%union.anon.6 = type { %struct.QTailQLink }
%struct.UHCIPort = type { %struct.USBPort, i16 }
%struct.USBPort = type { ptr, i32, i32, [16 x i8], ptr, ptr, i32, %union.anon.7 }
%union.anon.7 = type { %struct.QTailQLink }
%union.anon.8 = type { %struct.QTailQLink }
%struct.timeval = type { i64, i64 }

@trace_events_enabled_count = external global i32, align 4
@message_with_timestamp = external global i8, align 1
@qemu_loglevel = external global i32, align 4
@_TRACE_USB_UHCI_MMIO_READW_DSTATE = external global i16, align 2
@.str.63 = private unnamed_addr constant [58 x i8] c"%d@%zu.%06zu:usb_uhci_mmio_readw addr 0x%04x, ret 0x%04x\0A\00", align 1
@.str.64 = private unnamed_addr constant [45 x i8] c"usb_uhci_mmio_readw addr 0x%04x, ret 0x%04x\0A\00", align 1

; Function Attrs: nounwind sspstrong uwtable
define internal zeroext i1 @qemu_loglevel_mask(i32 noundef %mask) #0 {
entry:
  %mask.addr = alloca i32, align 4
  store i32 %mask, ptr %mask.addr, align 4
  %0 = load i32, ptr @qemu_loglevel, align 4
  %1 = load i32, ptr %mask.addr, align 4
  %and = and i32 %0, %1
  %cmp = icmp ne i32 %and, 0
  ret i1 %cmp
}

; Function Attrs: nounwind sspstrong uwtable
define internal void @_nocheck__trace_usb_uhci_mmio_readw(i32 noundef %addr, i32 noundef %val) #0 {
entry:
  %addr.addr = alloca i32, align 4
  %val.addr = alloca i32, align 4
  %_now = alloca %struct.timeval, align 8
  store i32 %addr, ptr %addr.addr, align 4
  store i32 %val, ptr %val.addr, align 4
  %0 = load i32, ptr @trace_events_enabled_count, align 4
  %tobool = icmp ne i32 %0, 0
  %lnot = xor i1 %tobool, true
  %lnot1 = xor i1 %lnot, true
  %lnot.ext = zext i1 %lnot1 to i32
  %conv = sext i32 %lnot.ext to i64
  %tobool2 = icmp ne i64 %conv, 0
  br i1 %tobool2, label %land.lhs.true, label %if.end11

land.lhs.true:                                    ; preds = %entry
  %1 = load i16, ptr @_TRACE_USB_UHCI_MMIO_READW_DSTATE, align 2
  %conv3 = zext i16 %1 to i32
  %tobool4 = icmp ne i32 %conv3, 0
  br i1 %tobool4, label %land.lhs.true5, label %if.end11

land.lhs.true5:                                   ; preds = %land.lhs.true
  %call = call zeroext i1 @qemu_loglevel_mask(i32 noundef 32768)
  br i1 %call, label %if.then, label %if.end11

if.then:                                          ; preds = %land.lhs.true5
  %2 = load i8, ptr @message_with_timestamp, align 1
  %tobool7 = trunc i8 %2 to i1
  br i1 %tobool7, label %if.then8, label %if.else

if.then8:                                         ; preds = %if.then
  %call9 = call i32 @gettimeofday(ptr noundef %_now, ptr noundef null) #7
  %call10 = call i32 @qemu_get_thread_id()
  %tv_sec = getelementptr inbounds %struct.timeval, ptr %_now, i32 0, i32 0
  %3 = load i64, ptr %tv_sec, align 8
  %tv_usec = getelementptr inbounds %struct.timeval, ptr %_now, i32 0, i32 1
  %4 = load i64, ptr %tv_usec, align 8
  %5 = load i32, ptr %addr.addr, align 4
  %6 = load i32, ptr %val.addr, align 4
  call void (ptr, ...) @qemu_log(ptr noundef @.str.63, i32 noundef %call10, i64 noundef %3, i64 noundef %4, i32 noundef %5, i32 noundef %6)
  br label %if.end

if.else:                                          ; preds = %if.then
  %7 = load i32, ptr %addr.addr, align 4
  %8 = load i32, ptr %val.addr, align 4
  call void (ptr, ...) @qemu_log(ptr noundef @.str.64, i32 noundef %7, i32 noundef %8)
  br label %if.end

if.end:                                           ; preds = %if.else, %if.then8
  br label %if.end11

if.end11:                                         ; preds = %if.end, %land.lhs.true5, %land.lhs.true, %entry
  ret void
}

; Function Attrs: nounwind sspstrong uwtable
define internal void @trace_usb_uhci_mmio_readw(i32 noundef %addr, i32 noundef %val) #0 {
entry:
  %addr.addr = alloca i32, align 4
  %val.addr = alloca i32, align 4
  store i32 %addr, ptr %addr.addr, align 4
  store i32 %val, ptr %val.addr, align 4
  %0 = load i32, ptr %addr.addr, align 4
  %1 = load i32, ptr %val.addr, align 4
  call void @_nocheck__trace_usb_uhci_mmio_readw(i32 noundef %0, i32 noundef %1)
  ret void
}

; Function Attrs: nounwind sspstrong uwtable
define internal i64 @uhci_port_read(ptr noundef %opaque, i64 noundef %addr, i32 noundef %size) #0 {
entry:
  %opaque.addr = alloca ptr, align 8
  %addr.addr = alloca i64, align 8
  %size.addr = alloca i32, align 4
  %s = alloca ptr, align 8
  %val = alloca i32, align 4
  %port = alloca ptr, align 8
  %n = alloca i32, align 4
  store ptr %opaque, ptr %opaque.addr, align 8
  store i64 %addr, ptr %addr.addr, align 8
  store i32 %size, ptr %size.addr, align 4
  %0 = load ptr, ptr %opaque.addr, align 8
  store ptr %0, ptr %s, align 8
  %1 = load i64, ptr %addr.addr, align 8
  switch i64 %1, label %sw.default [
    i64 0, label %sw.bb
    i64 2, label %sw.bb1
    i64 4, label %sw.bb3
    i64 6, label %sw.bb5
    i64 8, label %sw.bb7
    i64 10, label %sw.bb8
    i64 12, label %sw.bb11
    i64 16, label %sw.bb13
    i64 17, label %sw.bb13
    i64 18, label %sw.bb13
    i64 19, label %sw.bb13
    i64 20, label %sw.bb13
    i64 21, label %sw.bb13
    i64 22, label %sw.bb13
    i64 23, label %sw.bb13
    i64 24, label %sw.bb13
    i64 25, label %sw.bb13
    i64 26, label %sw.bb13
    i64 27, label %sw.bb13
    i64 28, label %sw.bb13
    i64 29, label %sw.bb13
    i64 30, label %sw.bb13
    i64 31, label %sw.bb13
  ]

sw.bb:                                            ; preds = %entry
  %2 = load ptr, ptr %s, align 8
  %cmd = getelementptr inbounds %struct.UHCIState, ptr %2, i32 0, i32 3
  %3 = load i16, ptr %cmd, align 16
  %conv = zext i16 %3 to i32
  store i32 %conv, ptr %val, align 4
  br label %sw.epilog

sw.bb1:                                           ; preds = %entry
  %4 = load ptr, ptr %s, align 8
  %status = getelementptr inbounds %struct.UHCIState, ptr %4, i32 0, i32 4
  %5 = load i16, ptr %status, align 2
  %conv2 = zext i16 %5 to i32
  store i32 %conv2, ptr %val, align 4
  br label %sw.epilog

sw.bb3:                                           ; preds = %entry
  %6 = load ptr, ptr %s, align 8
  %intr = getelementptr inbounds %struct.UHCIState, ptr %6, i32 0, i32 5
  %7 = load i16, ptr %intr, align 4
  %conv4 = zext i16 %7 to i32
  store i32 %conv4, ptr %val, align 4
  br label %sw.epilog

sw.bb5:                                           ; preds = %entry
  %8 = load ptr, ptr %s, align 8
  %frnum = getelementptr inbounds %struct.UHCIState, ptr %8, i32 0, i32 6
  %9 = load i16, ptr %frnum, align 2
  %conv6 = zext i16 %9 to i32
  store i32 %conv6, ptr %val, align 4
  br label %sw.epilog

sw.bb7:                                           ; preds = %entry
  %10 = load ptr, ptr %s, align 8
  %fl_base_addr = getelementptr inbounds %struct.UHCIState, ptr %10, i32 0, i32 7
  %11 = load i32, ptr %fl_base_addr, align 8
  %and = and i32 %11, 65535
  store i32 %and, ptr %val, align 4
  br label %sw.epilog

sw.bb8:                                           ; preds = %entry
  %12 = load ptr, ptr %s, align 8
  %fl_base_addr9 = getelementptr inbounds %struct.UHCIState, ptr %12, i32 0, i32 7
  %13 = load i32, ptr %fl_base_addr9, align 8
  %shr = lshr i32 %13, 16
  %and10 = and i32 %shr, 65535
  store i32 %and10, ptr %val, align 4
  br label %sw.epilog

sw.bb11:                                          ; preds = %entry
  %14 = load ptr, ptr %s, align 8
  %sof_timing = getelementptr inbounds %struct.UHCIState, ptr %14, i32 0, i32 8
  %15 = load i8, ptr %sof_timing, align 4
  %conv12 = zext i8 %15 to i32
  store i32 %conv12, ptr %val, align 4
  br label %sw.epilog

sw.bb13:                                          ; preds = %entry, %entry, %entry, %entry, %entry, %entry, %entry, %entry, %entry, %entry, %entry, %entry, %entry, %entry, %entry, %entry
  %16 = load i64, ptr %addr.addr, align 8
  %shr14 = lshr i64 %16, 1
  %and15 = and i64 %shr14, 7
  %conv16 = trunc i64 %and15 to i32
  store i32 %conv16, ptr %n, align 4
  %17 = load i32, ptr %n, align 4
  %cmp = icmp sge i32 %17, 2
  br i1 %cmp, label %if.then, label %if.end

if.then:                                          ; preds = %sw.bb13
  br label %read_default

if.end:                                           ; preds = %sw.bb13
  %18 = load ptr, ptr %s, align 8
  %ports = getelementptr inbounds %struct.UHCIState, ptr %18, i32 0, i32 16
  %19 = load i32, ptr %n, align 4
  %idxprom = sext i32 %19 to i64
  %arrayidx = getelementptr [2 x %struct.UHCIPort], ptr %ports, i64 0, i64 %idxprom
  store ptr %arrayidx, ptr %port, align 8
  %20 = load ptr, ptr %port, align 8
  %ctrl = getelementptr inbounds %struct.UHCIPort, ptr %20, i32 0, i32 1
  %21 = load i16, ptr %ctrl, align 8
  %conv18 = zext i16 %21 to i32
  store i32 %conv18, ptr %val, align 4
  br label %sw.epilog

sw.default:                                       ; preds = %entry
  br label %read_default

read_default:                                     ; preds = %sw.default, %if.then
  store i32 65407, ptr %val, align 4
  br label %sw.epilog

sw.epilog:                                        ; preds = %read_default, %if.end, %sw.bb11, %sw.bb8, %sw.bb7, %sw.bb5, %sw.bb3, %sw.bb1, %sw.bb
  %22 = load i64, ptr %addr.addr, align 8
  %conv19 = trunc i64 %22 to i32
  %23 = load i32, ptr %val, align 4
  call void @trace_usb_uhci_mmio_readw(i32 noundef %conv19, i32 noundef %23)
  %24 = load i32, ptr %val, align 4
  %conv20 = zext i32 %24 to i64
  ret i64 %conv20
}