; Function Attrs: nounwind sspstrong uwtable
define internal range(i64 0, 65536) i64 @uhci_port_read(ptr noundef readonly captures(none) %opaque, i64 noundef %addr, i32 %size) #0 {
entry:
  %_now.i.i = alloca %struct.timeval, align 8
  switch i64 %addr, label %sw.epilog [
    i64 0, label %sw.bb
    i64 2, label %sw.bb1
    i64 4, label %sw.bb3
    i64 6, label %sw.bb5
    i64 8, label %sw.bb7
    i64 10, label %sw.bb8
    i64 12, label %sw.bb11
    i64 16, label %sw.bb13
    i64 17, label %sw.bb13
    i64 18, label %sw.bb13
    i64 19, label %sw.bb13
    i64 20, label %sw.bb13
    i64 21, label %sw.bb13
    i64 22, label %sw.bb13
    i64 23, label %sw.bb13
    i64 24, label %sw.bb13
    i64 25, label %sw.bb13
    i64 26, label %sw.bb13
    i64 27, label %sw.bb13
    i64 28, label %sw.bb13
    i64 29, label %sw.bb13
    i64 30, label %sw.bb13
    i64 31, label %sw.bb13
  ]

sw.bb:                                            ; preds = %entry
  %cmd = getelementptr inbounds nuw i8, ptr %opaque, i64 3072
  %0 = load i16, ptr %cmd, align 16
  %conv = zext i16 %0 to i32
  br label %sw.epilog

sw.bb1:                                           ; preds = %entry
  %status = getelementptr inbounds nuw i8, ptr %opaque, i64 3074
  %1 = load i16, ptr %status, align 2
  %conv2 = zext i16 %1 to i32
  br label %sw.epilog

sw.bb3:                                           ; preds = %entry
  %intr = getelementptr inbounds nuw i8, ptr %opaque, i64 3076
  %2 = load i16, ptr %intr, align 4
  %conv4 = zext i16 %2 to i32
  br label %sw.epilog

sw.bb5:                                           ; preds = %entry
  %frnum = getelementptr inbounds nuw i8, ptr %opaque, i64 3078
  %3 = load i16, ptr %frnum, align 2
  %conv6 = zext i16 %3 to i32
  br label %sw.epilog

sw.bb7:                                           ; preds = %entry
  %fl_base_addr = getelementptr inbounds nuw i8, ptr %opaque, i64 3080
  %4 = load i32, ptr %fl_base_addr, align 8
  %and = and i32 %4, 65535
  br label %sw.epilog

sw.bb8:                                           ; preds = %entry
  %fl_base_addr9 = getelementptr inbounds nuw i8, ptr %opaque, i64 3080
  %5 = load i32, ptr %fl_base_addr9, align 8
  %shr = lshr i32 %5, 16
  br label %sw.epilog

sw.bb11:                                          ; preds = %entry
  %sof_timing = getelementptr inbounds nuw i8, ptr %opaque, i64 3084
  %6 = load i8, ptr %sof_timing, align 4
  %conv12 = zext i8 %6 to i32
  br label %sw.epilog

sw.bb13:                                          ; preds = %entry, %entry, %entry, %entry, %entry, %entry, %entry, %entry, %entry, %entry, %entry, %entry, %entry, %entry, %entry, %entry
  %7 = trunc i64 %addr to i32
  %8 = lshr i32 %7, 1
  %conv16 = and i32 %8, 7
  %cmp = icmp samesign ugt i32 %conv16, 1
  br i1 %cmp, label %sw.epilog, label %if.end

if.end:                                           ; preds = %sw.bb13
  %ports = getelementptr inbounds nuw i8, ptr %opaque, i64 3128
  %narrow = mul nuw nsw i32 %conv16, 80
  %9 = zext nneg i32 %narrow to i64
  %10 = getelementptr i8, ptr %ports, i64 %9
  %ctrl = getelementptr i8, ptr %10, i64 72
  %11 = load i16, ptr %ctrl, align 8
  %conv18 = zext i16 %11 to i32
  br label %sw.epilog

sw.epilog:                                        ; preds = %sw.bb13, %entry, %if.end, %sw.bb11, %sw.bb8, %sw.bb7, %sw.bb5, %sw.bb3, %sw.bb1, %sw.bb
  %val.0 = phi i32 [ %conv18, %if.end ], [ %conv12, %sw.bb11 ], [ %shr, %sw.bb8 ], [ %and, %sw.bb7 ], [ %conv6, %sw.bb5 ], [ %conv4, %sw.bb3 ], [ %conv2, %sw.bb1 ], [ %conv, %sw.bb ], [ 65407, %entry ], [ 65407, %sw.bb13 ]
  %conv19 = trunc i64 %addr to i32
  call void @llvm.lifetime.start.p0(i64 16, ptr nonnull %_now.i.i)
  %12 = load i32, ptr @trace_events_enabled_count, align 4
  %tobool.i.i = icmp ne i32 %12, 0
  %13 = load i16, ptr @_TRACE_USB_UHCI_MMIO_READW_DSTATE, align 2
  %tobool4.i.i = icmp ne i16 %13, 0
  %or.cond.i.i = select i1 %tobool.i.i, i1 %tobool4.i.i, i1 false
  br i1 %or.cond.i.i, label %land.lhs.true5.i.i, label %trace_usb_uhci_mmio_readw.exit

land.lhs.true5.i.i:                               ; preds = %sw.epilog
  %14 = load i32, ptr @qemu_loglevel, align 4
  %and.i.i.i = and i32 %14, 32768
  %cmp.i.not.i.i = icmp eq i32 %and.i.i.i, 0
  br i1 %cmp.i.not.i.i, label %trace_usb_uhci_mmio_readw.exit, label %if.then.i.i

if.then.i.i:                                      ; preds = %land.lhs.true5.i.i
  %15 = load i8, ptr @message_with_timestamp, align 1
  %tobool7.i.i = trunc i8 %15 to i1
  br i1 %tobool7.i.i, label %if.then8.i.i, label %if.else.i.i

if.then8.i.i:                                     ; preds = %if.then.i.i
  %call9.i.i = call i32 @gettimeofday(ptr noundef nonnull %_now.i.i, ptr noundef null) #11
  %call10.i.i = tail call i32 @qemu_get_thread_id() #11
  %16 = load i64, ptr %_now.i.i, align 8
  %tv_usec.i.i = getelementptr inbounds nuw i8, ptr %_now.i.i, i64 8
  %17 = load i64, ptr %tv_usec.i.i, align 8
  tail call void (ptr, ...) @qemu_log(ptr noundef nonnull @.str.63, i32 noundef %call10.i.i, i64 noundef %16, i64 noundef %17, i32 noundef %conv19, i32 noundef range(i32 0, 65536) %val.0) #11
  br label %trace_usb_uhci_mmio_readw.exit

if.else.i.i:                                      ; preds = %if.then.i.i
  tail call void (ptr, ...) @qemu_log(ptr noundef nonnull @.str.64, i32 noundef %conv19, i32 noundef range(i32 0, 65536) %val.0) #11
  br label %trace_usb_uhci_mmio_readw.exit

trace_usb_uhci_mmio_readw.exit:                   ; preds = %sw.epilog, %land.lhs.true5.i.i, %if.then8.i.i, %if.else.i.i
  call void @llvm.lifetime.end.p0(i64 16, ptr nonnull %_now.i.i)
  %conv20 = zext nneg i32 %val.0 to i64
  ret i64 %conv20
}